Certificate:
    Data:
        Version: 3 (0x2)
        Serial Number: 3 (0x3)
    Signature Algorithm: sha256WithRSAEncryption
        Issuer: C=US, ST=California, L=San Jose, O=Elastica Inc, OU=Development/emailAddress=service-engineering@elastica.co, CN=Elastica
        Validity
            Not Before: Mar  6 23:24:04 2017 GMT
            Not After : Mar  6 23:24:04 2018 GMT
        Subject: C=US, ST=California, O=Elastica Inc, OU=Elastica Certificate Authority, CN=*.cloudband.co
        Subject Public Key Info:
            Public Key Algorithm: rsaEncryption
                Public-Key: (4096 bit)
                Modulus:
                    00:c9:46:01:cc:53:f0:30:66:de:d4:b0:0c:44:2e:
                    1e:25:01:de:3a:3e:8d:db:2f:ce:ed:b0:85:28:aa:
                    be:3e:dc:db:a3:aa:90:e6:eb:e1:86:87:1c:66:16:
                    8f:3b:34:23:05:90:48:83:f9:40:af:2e:7c:08:b6:
                    33:99:27:5b:d7:06:b4:fa:fa:b6:70:84:f1:34:b4:
                    de:19:7e:fe:84:37:36:b9:6c:93:ad:05:da:21:bd:
                    57:49:4c:1e:d3:98:1b:65:e3:55:80:72:40:e7:93:
                    d5:1f:06:e8:bf:85:ee:d3:59:16:7b:0a:70:41:c7:
                    b6:91:e0:25:44:53:74:de:76:c5:0d:6a:e4:bc:e1:
                    2f:6c:b5:f0:99:be:d1:66:47:df:54:0d:6f:fb:59:
                    b3:f6:80:4c:92:d8:88:84:2e:8d:0f:88:71:32:3d:
                    f2:72:9c:3d:79:83:38:4a:1f:b1:2f:3e:90:50:22:
                    30:4e:e2:8f:e5:b0:53:7a:bf:5b:4c:2f:c3:50:13:
                    30:e8:3c:8b:fa:98:e2:d7:bf:74:71:be:05:37:f2:
                    91:fd:28:8e:cf:e1:aa:92:ee:0a:e6:02:5f:d7:45:
                    0d:6d:0c:38:26:11:6d:b1:fb:e8:ad:90:27:09:6c:
                    e1:37:c5:92:6b:bb:c3:bc:07:17:bb:f6:9f:85:20:
                    07:14:05:81:3c:9b:81:a7:d3:89:0e:49:9b:e6:24:
                    d1:7d:b3:d9:25:e9:09:57:cf:98:92:62:3a:01:be:
                    d9:22:d2:c6:c5:38:87:66:fd:20:07:e3:28:18:d8:
                    7c:d5:ee:a1:6d:eb:4b:c3:59:2d:23:1d:f2:27:00:
                    0e:dc:c0:9e:38:54:9a:87:a5:64:c4:74:0f:bb:17:
                    8e:34:d9:21:17:44:a3:39:1c:d8:00:24:3e:83:39:
                    3a:73:c3:2b:09:8b:52:2e:f6:86:b2:ee:fe:60:a1:
                    93:5d:15:8d:15:3a:b8:98:d7:22:60:61:81:79:6f:
                    67:68:88:db:53:2e:64:cd:7e:ae:1e:2e:5a:d3:11:
                    dd:42:cb:5a:20:9f:ae:69:db:88:e5:0b:58:3f:88:
                    b0:72:6c:1d:b5:72:fe:46:d3:de:4c:b3:6b:1b:c0:
                    09:82:cf:17:89:75:b5:af:66:24:2a:ef:fb:31:83:
                    5d:09:c1:3d:c6:74:7c:9a:71:82:e7:45:6b:f6:9a:
                    7b:6a:e8:73:7e:fd:fa:a4:20:6d:40:b0:c3:b8:7a:
                    12:43:5d:87:4c:1b:6d:f5:4a:8b:7f:a0:f8:27:53:
                    c2:e0:22:3d:52:8a:6d:1e:7f:ee:49:cc:01:73:56:
                    b9:02:f1:0c:66:bd:5f:ec:59:98:8d:46:51:84:6e:
                    76:ef:21
                Exponent: 65537 (0x10001)
        X509v3 extensions:
            X509v3 Basic Constraints: 
                CA:FALSE
            X509v3 Subject Key Identifier: 
                26:99:7F:81:B6:FE:43:DC:7D:96:2C:16:4E:C4:F1:CD:29:0F:EC:C0
            X509v3 Key Usage: 
                Digital Signature, Non Repudiation, Key Encipherment
            Netscape Comment: 
                OpenSSL Generated Certificate
            X509v3 Subject Alternative Name: 
                DNS:eoemgw.cloudband.co
    Signature Algorithm: sha256WithRSAEncryption
         97:1f:33:f9:f9:74:01:5b:ca:95:3a:b5:a0:29:f6:0a:fa:60:
         09:9f:a2:bc:1c:83:95:81:35:f7:36:54:97:42:88:77:f7:11:
         38:37:c1:f1:d2:c5:d6:62:91:4d:38:87:94:73:1b:29:7f:ea:
         52:2a:89:42:f7:74:3f:bc:02:a8:72:14:86:8f:9e:57:63:61:
         02:9a:a3:01:79:29:bb:8f:f1:45:fc:bc:a9:6d:2c:4c:8e:24:
         ca:b4:38:9e:b4:ca:d2:1c:02:09:13:72:60:fc:65:a0:be:ad:
         dd:3a:5d:4f:d4:4b:92:56:81:7e:e6:59:75:e1:9a:60:4b:87:
         d1:05:d4:57:06:b9:ab:0d:c3:d2:7a:96:dd:c9:3f:67:41:8b:
         ae:de:7d:1d:6d:cc:9e:7d:fa:06:4b:2a:3d:31:d1:d4:69:26:
         34:ee:f4:61:09:32:39:b0:66:df:45:ee:02:ad:54:91:49:49:
         ef:58:08:d5:52:a5:3b:8b:64:1b:11:cd:17:26:cd:19:04:21:
         ea:7f:4b:94:9e:57:c7:32:b2:57:b8:22:eb:65:38:7f:7c:39:
         ff:ba:22:0e:f1:ba:85:55:06:b4:f0:00:d7:1a:de:dc:ce:b6:
         40:cc:17:f7:97:81:c5:cc:67:cd:6e:e0:3e:52:29:5c:4d:84:
         e2:c6:7b:37:2e:65:34:18:5f:6a:ef:08:56:67:99:f4:55:f5:
         c4:53:fe:12:c8:41:45:28:8c:a4:b7:81:c6:b4:9b:8f:12:66:
         59:ee:ca:6d:60:79:52:0d:8c:19:bb:78:58:00:be:7f:81:9f:
         70:95:c3:76:f1:ca:9e:53:6c:a5:bf:2b:26:a8:59:7a:a9:bf:
         03:7e:d1:53:8b:1a:95:05:78:9c:a6:01:67:67:ab:67:5c:8e:
         6b:33:93:14:c4:15:44:54:a1:f2:0f:c5:8b:e4:60:7f:d2:ad:
         1d:87:78:d7:7c:25:50:45:95:32:b3:75:1f:88:5b:69:b5:67:
         0b:7d:94:6a:14:a7:b1:41:cb:6c:30:a6:5b:19:b0:30:c5:5c:
         44:d7:83:7f:b4:3d:60:82:46:30:a4:e6:eb:58:6a:ab:b1:5f:
         b8:2d:51:30:35:b1:49:62:9c:68:b4:34:75:06:49:fb:58:2a:
         58:7b:88:72:e9:7f:22:b0:8e:25:82:ca:c6:14:c8:d5:0f:61:
         83:f3:6c:c7:37:9b:b5:0e:d3:0c:56:62:82:9a:98:3c:88:0a:
         87:81:78:e3:14:ea:21:cf:05:49:c8:0f:ff:3a:ec:7d:ee:a3:
         55:3b:ae:59:1e:e5:52:1e:62:e9:34:eb:c3:30:2a:cb:df:a7:
         0c:9a:af:84:cf:db:73:23
-----BEGIN CERTIFICATE-----
MIIGJTCCBA2gAwIBAgIBAzANBgkqhkiG9w0BAQsFADCBpTELMAkGA1UEBhMCVVMx
EzARBgNVBAgTCkNhbGlmb3JuaWExETAPBgNVBAcTCFNhbiBKb3NlMRUwEwYDVQQK
EwxFbGFzdGljYSBJbmMxFDASBgNVBAsTC0RldmVsb3BtZW50MS4wLAYJKoZIhvcN
AQkBFh9zZXJ2aWNlLWVuZ2luZWVyaW5nQGVsYXN0aWNhLmNvMREwDwYDVQQDEwhF
bGFzdGljYTAeFw0xNzAzMDYyMzI0MDRaFw0xODAzMDYyMzI0MDRaMHsxCzAJBgNV
BAYTAlVTMRMwEQYDVQQIEwpDYWxpZm9ybmlhMRUwEwYDVQQKEwxFbGFzdGljYSBJ
bmMxJzAlBgNVBAsTHkVsYXN0aWNhIENlcnRpZmljYXRlIEF1dGhvcml0eTEXMBUG
A1UEAxQOKi5jbG91ZGJhbmQuY28wggIiMA0GCSqGSIb3DQEBAQUAA4ICDwAwggIK
AoICAQDJRgHMU/AwZt7UsAxELh4lAd46Po3bL87tsIUoqr4+3NujqpDm6+GGhxxm
Fo87NCMFkEiD+UCvLnwItjOZJ1vXBrT6+rZwhPE0tN4Zfv6ENza5bJOtBdohvVdJ
TB7TmBtl41WAckDnk9UfBui/he7TWRZ7CnBBx7aR4CVEU3TedsUNauS84S9stfCZ
vtFmR99UDW/7WbP2gEyS2IiELo0PiHEyPfJynD15gzhKH7EvPpBQIjBO4o/lsFN6
v1tML8NQEzDoPIv6mOLXv3RxvgU38pH9KI7P4aqS7grmAl/XRQ1tDDgmEW2x++it
kCcJbOE3xZJru8O8Bxe79p+FIAcUBYE8m4Gn04kOSZvmJNF9s9kl6QlXz5iSYjoB
vtki0sbFOIdm/SAH4ygY2HzV7qFt60vDWS0jHfInAA7cwJ44VJqHpWTEdA+7F440
2SEXRKM5HNgAJD6DOTpzwysJi1Iu9oay7v5goZNdFY0VOriY1yJgYYF5b2doiNtT
LmTNfq4eLlrTEd1Cy1ogn65p24jlC1g/iLBybB21cv5G095Ms2sbwAmCzxeJdbWv
ZiQq7/sxg10JwT3GdHyacYLnRWv2mntq6HN+/fqkIG1AsMO4ehJDXYdMG231Sot/
oPgnU8LgIj1Sim0ef+5JzAFzVrkC8QxmvV/sWZiNRlGEbnbvIQIDAQABo4GIMIGF
MAkGA1UdEwQCMAAwHQYDVR0OBBYEFCaZf4G2/kPcfZYsFk7E8c0pD+zAMAsGA1Ud
DwQEAwIF4DAsBglghkgBhvhCAQ0EHxYdT3BlblNTTCBHZW5lcmF0ZWQgQ2VydGlm
aWNhdGUwHgYDVR0RBBcwFYITZW9lbWd3LmNsb3VkYmFuZC5jbzANBgkqhkiG9w0B
AQsFAAOCAgEAlx8z+fl0AVvKlTq1oCn2CvpgCZ+ivByDlYE19zZUl0KId/cRODfB
8dLF1mKRTTiHlHMbKX/qUiqJQvd0P7wCqHIUho+eV2NhApqjAXkpu4/xRfy8qW0s
TI4kyrQ4nrTK0hwCCRNyYPxloL6t3TpdT9RLklaBfuZZdeGaYEuH0QXUVwa5qw3D
0nqW3ck/Z0GLrt59HW3Mnn36BksqPTHR1GkmNO70YQkyObBm30XuAq1UkUlJ71gI
1VKlO4tkGxHNFybNGQQh6n9LlJ5XxzKyV7gi62U4f3w5/7oiDvG6hVUGtPAA1xre
3M62QMwX95eBxcxnzW7gPlIpXE2E4sZ7Ny5lNBhfau8IVmeZ9FX1xFP+EshBRSiM
pLeBxrSbjxJmWe7KbWB5Ug2MGbt4WAC+f4GfcJXDdvHKnlNspb8rJqhZeqm/A37R
U4salQV4nKYBZ2erZ1yOazOTFMQVRFSh8g/Fi+Rgf9KtHYd413wlUEWVMrN1H4hb
abVnC32UahSnsUHLbDCmWxmwMMVcRNeDf7Q9YIJGMKTm61hqq7FfuC1RMDWxSWKc
aLQ0dQZJ+1gqWHuIcul/IrCOJYLKxhTI1Q9hg/NsxzebtQ7TDFZigpqYPIgKh4F4
4xTqIc8FScgP/zrsfe6jVTuuWR7lUh5i6TTrwzAqy9+nDJqvhM/bcyM=
-----END CERTIFICATE-----
